target datalayout = "e-m:e-p270:32:32-p271:32:32-p272:64:64-i64:64-i128:128-f80:128-n8:16:32:64-S128"
target triple = "x86_64-pc-linux-gnu"

@.str.9384 = private unnamed_addr constant [11 x i8] c"%d byte(s)\00", align 1
@.str.9385 = private unnamed_addr constant [19 x i8] c"Invalid length: %u\00", align 1

; Function Attrs: null_pointer_is_valid sspstrong uwtable
define internal void @vs_sgdsn_serialnumber_len_custom(ptr noundef %0, i32 noundef %1) #1 {
  %3 = alloca ptr, align 8
  %4 = alloca i32, align 4
  store ptr %0, ptr %3, align 8
  store i32 %1, ptr %4, align 4
  %5 = load i32, ptr %4, align 4
  %6 = icmp uge i32 %5, 48
  br i1 %6, label %7, label %17

7:                                                ; preds = %2
  %8 = load i32, ptr %4, align 4
  %9 = icmp ule i32 %8, 57
  br i1 %9, label %10, label %17

10:                                               ; preds = %7
  %11 = load ptr, ptr %3, align 8
  %12 = load ptr, ptr %3, align 8
  %13 = call i64 @llvm.objectsize.i64.p0(ptr %12, i1 false, i1 true, i1 true)
  %14 = load i32, ptr %4, align 4
  %15 = sub i32 %14, 48
  %16 = call i32 (ptr, i64, i32, i64, ptr, ...) @__snprintf_chk(ptr noundef %11, i64 noundef 240, i32 noundef 2, i64 noundef %13, ptr noundef @.str.9384, i32 noundef %15)
  br label %37

17:                                               ; preds = %7, %2
  %18 = load i32, ptr %4, align 4
  %19 = icmp uge i32 %18, 65
  br i1 %19, label %20, label %30

20:                                               ; preds = %17
  %21 = load i32, ptr %4, align 4
  %22 = icmp ule i32 %21, 70
  br i1 %22, label %23, label %30

23:                                               ; preds = %20
  %24 = load ptr, ptr %3, align 8
  %25 = load ptr, ptr %3, align 8
  %26 = call i64 @llvm.objectsize.i64.p0(ptr %25, i1 false, i1 true, i1 true)
  %27 = load i32, ptr %4, align 4
  %28 = sub i32 %27, 55
  %29 = call i32 (ptr, i64, i32, i64, ptr, ...) @__snprintf_chk(ptr noundef %24, i64 noundef 240, i32 noundef 2, i64 noundef %26, ptr noundef @.str.9384, i32 noundef %28)
  br label %36

30:                                               ; preds = %20, %17
  %31 = load ptr, ptr %3, align 8
  %32 = load ptr, ptr %3, align 8
  %33 = call i64 @llvm.objectsize.i64.p0(ptr %32, i1 false, i1 true, i1 true)
  %34 = load i32, ptr %4, align 4
  %35 = call i32 (ptr, i64, i32, i64, ptr, ...) @__snprintf_chk(ptr noundef %31, i64 noundef 240, i32 noundef 2, i64 noundef %33, ptr noundef @.str.9385, i32 noundef %34)
  br label %36

36:                                               ; preds = %30, %23
  br label %37

37:                                               ; preds = %36, %10
  ret void
}