; Function Attrs: nofree null_pointer_is_valid sspstrong uwtable
define internal void @vs_sgdsn_serialnumber_len_custom(ptr noundef %0, i32 noundef %1) #4 {
  %3 = add i32 %1, -48
  %or.cond = icmp ult i32 %3, 10
  br i1 %or.cond, label %4, label %6

4:                                                ; preds = %2
  %5 = tail call i32 (ptr, i64, i32, i64, ptr, ...) @__snprintf_chk(ptr noundef %0, i64 noundef 240, i32 noundef 2, i64 noundef -1, ptr noundef nonnull @.str.9384, i32 noundef %3)
  br label %13

6:                                                ; preds = %2
  %7 = add i32 %1, -65
  %or.cond3 = icmp ult i32 %7, 6
  br i1 %or.cond3, label %8, label %11

8:                                                ; preds = %6
  %9 = add nsw i32 %1, -55
  %10 = tail call i32 (ptr, i64, i32, i64, ptr, ...) @__snprintf_chk(ptr noundef %0, i64 noundef 240, i32 noundef 2, i64 noundef -1, ptr noundef nonnull @.str.9384, i32 noundef %9)
  br label %13

11:                                               ; preds = %6
  %12 = tail call i32 (ptr, i64, i32, i64, ptr, ...) @__snprintf_chk(ptr noundef %0, i64 noundef 240, i32 noundef 2, i64 noundef -1, ptr noundef nonnull @.str.9385, i32 noundef %1)
  br label %13

13:                                               ; preds = %8, %11, %4
  ret void
}